; Function Attrs: mustprogress nofree norecurse nosync nounwind sspstrong willreturn memory(argmem: readwrite) uwtable
define dso_local noundef i32 @rb_ruby_parser_set_yydebug(ptr noundef captures(none) %0, i32 noundef returned %1) local_unnamed_addr #4 {
  %3 = getelementptr inbounds nuw i8, ptr %0, i64 360
  %4 = load i32, ptr %3, align 8
  %5 = shl i32 %1, 5
  %6 = and i32 %5, 32
  %7 = and i32 %4, -33
  %8 = or disjoint i32 %7, %6
  store i32 %8, ptr %3, align 8
  ret i32 %1
}